; Function Attrs: mustprogress nounwind uwtable
define internal void @"_ZNSt17_Function_handlerIFvRN4llvm19MachineInstrBuilderEEZNS0_14CombinerHelper36matchHoistLogicOpWithSameOpcodeHandsERNS0_12MachineInstrERNS0_25InstructionStepsMatchInfoEE3$_0E9_M_invokeERKSt9_Any_dataS2_"(ptr nocapture noundef nonnull readonly align 8 dereferenceable(16) %0, ptr nocapture noundef nonnull readonly align 8 dereferenceable(16) %1) #0 align 2 {
  %3 = alloca %"class.llvm::MachineOperand", align 8
  %.val = load i32, ptr %0, align 8
  %.val2 = load ptr, ptr %1, align 8
  %4 = getelementptr inbounds i8, ptr %1, i64 8
  %.val3 = load ptr, ptr %4, align 8
  call void @llvm.lifetime.start.p0(i64 32, ptr nonnull %3)
  %5 = getelementptr inbounds nuw i8, ptr %3, i64 8
  store ptr null, ptr %5, align 8, !alias.scope !254
  %6 = getelementptr inbounds nuw i8, ptr %3, i64 4
  store i32 %.val, ptr %6, align 4, !alias.scope !254
  %7 = getelementptr inbounds nuw i8, ptr %3, i64 16
  call void @llvm.memset.p0.i64(ptr noundef nonnull align 8 dereferenceable(16) %7, i8 0, i64 16, i1 false), !alias.scope !254
  store i32 16777216, ptr %3, align 8, !alias.scope !254
  call void @_ZN4llvm12MachineInstr10addOperandERNS_15MachineFunctionERKNS_14MachineOperandE(ptr noundef nonnull align 8 dereferenceable(70) %.val3, ptr noundef nonnull align 8 dereferenceable(1041) %.val2, ptr noundef nonnull align 8 dereferenceable(32) %3) #27
  call void @llvm.lifetime.end.p0(i64 32, ptr nonnull %3)
  ret void
}